; Function Attrs: mustprogress null_pointer_is_valid sspstrong uwtable
define void @_ZN8UatFrame26on_clearToolButton_clickedEv(ptr noundef readonly align 8 captures(none) dereferenceable_or_null(72) %0) local_unnamed_addr #0 align 2 {
  %2 = getelementptr inbounds nuw i8, ptr %0, i64 48
  %3 = load ptr, ptr %2, align 8
  %.not = icmp eq ptr %3, null
  br i1 %.not, label %5, label %4

4:                                                ; preds = %1
  tail call void @_ZN8UatModel8clearAllEv(ptr noundef nonnull align 8 dereferenceable_or_null(80) %3)
  br label %5

5:                                                ; preds = %4, %1
  ret void
}